; Function Attrs: mustprogress uwtable
define internal noundef zeroext i1 @_ZNK7rocksdb12_GLOBAL__N_115PosixFileSystem12IsInstanceOfERKNSt7__cxx1112basic_stringIcSt11char_traitsIcESaIcEEE(ptr noundef nonnull align 8 dereferenceable(57) %this, ptr noundef nonnull align 8 dereferenceable(32) %name) unnamed_addr #5 align 2 {
entry:
  %call.i = tail call noundef i32 @_ZNKSt7__cxx1112basic_stringIcSt11char_traitsIcESaIcEE7compareEPKc(ptr noundef nonnull align 8 dereferenceable(32) %name, ptr noundef nonnull @.str.41) #29
  %cmp.i = icmp eq i32 %call.i, 0
  br i1 %cmp.i, label %return, label %if.else

if.else:                                          ; preds = %entry
  %call.i2 = tail call noundef zeroext i1 @_ZNKSt7__cxx1112basic_stringIcSt11char_traitsIcESaIcEE5emptyEv(ptr noundef nonnull align 8 dereferenceable(32) %name) #29
  br i1 %call.i2, label %return, label %if.else.i

if.else.i:                                        ; preds = %if.else
  %vtable.i = load ptr, ptr %this, align 8
  %vfn.i = getelementptr inbounds i8, ptr %vtable.i, i64 112
  %0 = load ptr, ptr %vfn.i, align 8
  %call2.i = tail call noundef ptr %0(ptr noundef nonnull align 8 dereferenceable(32) %this)
  %call.i.i = tail call noundef i32 @_ZNKSt7__cxx1112basic_stringIcSt11char_traitsIcESaIcEE7compareEPKc(ptr noundef nonnull align 8 dereferenceable(32) %name, ptr noundef %call2.i) #29
  %cmp.i.i = icmp eq i32 %call.i.i, 0
  br i1 %cmp.i.i, label %return, label %if.else5.i

if.else5.i:                                       ; preds = %if.else.i
  %vtable6.i = load ptr, ptr %this, align 8
  %vfn7.i = getelementptr inbounds i8, ptr %vtable6.i, i64 144
  %1 = load ptr, ptr %vfn7.i, align 8
  %call8.i = tail call noundef ptr %1(ptr noundef nonnull align 8 dereferenceable(32) %this)
  %cmp.not.i = icmp eq ptr %call8.i, null
  br i1 %cmp.not.i, label %if.else11.i, label %land.lhs.true.i

land.lhs.true.i:                                  ; preds = %if.else5.i
  %call.i4.i = tail call noundef i32 @_ZNKSt7__cxx1112basic_stringIcSt11char_traitsIcESaIcEE7compareEPKc(ptr noundef nonnull align 8 dereferenceable(32) %name, ptr noundef nonnull %call8.i) #29
  %cmp.i5.i = icmp eq i32 %call.i4.i, 0
  br i1 %cmp.i5.i, label %return, label %if.else11.i

if.else11.i:                                      ; preds = %land.lhs.true.i, %if.else5.i
  br label %return

return:                                           ; preds = %if.else11.i, %land.lhs.true.i, %if.else.i, %if.else, %entry
  %retval.0 = phi i1 [ true, %entry ], [ false, %if.else11.i ], [ false, %if.else ], [ true, %if.else.i ], [ true, %land.lhs.true.i ]
  ret i1 %retval.0
}